; Function Attrs: mustprogress nofree norecurse nosync nounwind willreturn memory(argmem: readwrite) uwtable
define hidden noundef zeroext i1 @_ZNK4cvc58internal6theory19DecisionStrategyFmf23getAssertedLiteralIndexERj(ptr nocapture noundef nonnull readonly align 8 dereferenceable(144) %this, ptr nocapture noundef nonnull writeonly align 4 dereferenceable(4) %i) local_unnamed_addr #6 align 2 {
entry:
  %d_data.i = getelementptr inbounds i8, ptr %this, i64 64
  %0 = load i8, ptr %d_data.i, align 8
  %1 = and i8 %0, 1
  %tobool.not = icmp ne i8 %1, 0
  br i1 %tobool.not, label %if.then, label %return

if.then:                                          ; preds = %entry
  %d_data.i1 = getelementptr inbounds i8, ptr %this, i64 112
  %2 = load i32, ptr %d_data.i1, align 8
  store i32 %2, ptr %i, align 4
  br label %return

return:                                           ; preds = %entry, %if.then
  ret i1 %tobool.not
}